target datalayout = "e-m:e-p270:32:32-p271:32:32-p272:64:64-i64:64-i128:128-f80:128-n8:16:32:64-S128"
target triple = "x86_64-unknown-linux-gnu"

%"class.boost::detail::shared_count" = type { ptr }
%"class.boost::shared_ptr.16" = type { ptr, %"class.boost::detail::shared_count" }
%"class.boost::shared_ptr.17" = type { ptr, %"class.boost::detail::shared_count" }
%"class.QuantLib::Option::arguments" = type { %"class.QuantLib::PricingEngine::arguments", %"class.boost::shared_ptr.16", %"class.boost::shared_ptr.17" }
%"class.QuantLib::PricingEngine::arguments" = type { ptr }
%"class.QuantLib::Null" = type { i8 }
%"class.QuantLib::EverestOption::arguments" = type { %"class.QuantLib::Option::arguments", double, double }
%"class.boost::detail::sp_counted_base" = type { ptr, i32, i32 }

; Function Attrs: mustprogress uwtable
define linkonce_odr void @_ZN5boost6detail15sp_counted_base12weak_releaseEv(ptr noundef nonnull align 8 dereferenceable(16) %this) #2 comdat align 2 {
entry:
  %this.addr = alloca ptr, align 8
  store ptr %this, ptr %this.addr, align 8, !tbaa !3
  %this1 = load ptr, ptr %this.addr, align 8
  %weak_count_ = getelementptr inbounds nuw %"class.boost::detail::sp_counted_base", ptr %this1, i32 0, i32 2
  %call = call noundef i32 @_ZN5boost6detail16atomic_decrementEPj(ptr noundef %weak_count_)
  %cmp = icmp eq i32 %call, 1
  br i1 %cmp, label %if.then, label %if.end

if.then:                                          ; preds = %entry
  %vtable = load ptr, ptr %this1, align 8, !tbaa !20
  %vfn = getelementptr inbounds ptr, ptr %vtable, i64 3
  %0 = load ptr, ptr %vfn, align 8
  call void %0(ptr noundef nonnull align 8 dereferenceable(16) %this1)
  br label %if.end

if.end:                                           ; preds = %if.then, %entry
  ret void
}

; Function Attrs: inlinehint mustprogress nounwind uwtable
define linkonce_odr noundef i32 @_ZN5boost6detail16atomic_decrementEPj(ptr noundef %pw) #5 comdat {
entry:
  %pw.addr = alloca ptr, align 8
  %.atomictmp = alloca i32, align 4
  %atomic-temp = alloca i32, align 4
  store ptr %pw, ptr %pw.addr, align 8, !tbaa !3
  %0 = load ptr, ptr %pw.addr, align 8, !tbaa !3
  store i32 1, ptr %.atomictmp, align 4, !tbaa !95
  %1 = load i32, ptr %.atomictmp, align 4
  %2 = atomicrmw sub ptr %0, i32 %1 acq_rel, align 4
  store i32 %2, ptr %atomic-temp, align 4
  %3 = load i32, ptr %atomic-temp, align 4, !tbaa !95
  ret i32 %3
}

; Function Attrs: noinline noreturn nounwind uwtable
define linkonce_odr hidden void @__clang_call_terminate(ptr noundef %0) #3 comdat {
  %2 = call ptr @__cxa_begin_catch(ptr %0) #14
  call void @_ZSt9terminatev() #22
  unreachable
}

; Function Attrs: mustprogress uwtable
define linkonce_odr void @_ZN5boost6detail15sp_counted_base7releaseEv(ptr noundef nonnull align 8 dereferenceable(16) %this) #2 comdat align 2 {
entry:
  %this.addr = alloca ptr, align 8
  store ptr %this, ptr %this.addr, align 8, !tbaa !3
  %this1 = load ptr, ptr %this.addr, align 8
  %use_count_ = getelementptr inbounds nuw %"class.boost::detail::sp_counted_base", ptr %this1, i32 0, i32 1
  %call = call noundef i32 @_ZN5boost6detail16atomic_decrementEPj(ptr noundef %use_count_)
  %cmp = icmp eq i32 %call, 1
  br i1 %cmp, label %if.then, label %if.end

if.then:                                          ; preds = %entry
  %vtable = load ptr, ptr %this1, align 8, !tbaa !20
  %vfn = getelementptr inbounds ptr, ptr %vtable, i64 2
  %0 = load ptr, ptr %vfn, align 8
  call void %0(ptr noundef nonnull align 8 dereferenceable(16) %this1)
  call void @_ZN5boost6detail15sp_counted_base12weak_releaseEv(ptr noundef nonnull align 8 dereferenceable(16) %this1)
  br label %if.end

if.end:                                           ; preds = %if.then, %entry
  ret void
}

; Function Attrs: mustprogress nounwind uwtable
define linkonce_odr void @_ZN5boost6detail12shared_countD2Ev(ptr noundef nonnull align 8 dereferenceable(8) %this) unnamed_addr #1 comdat align 2 personality ptr @__gxx_personality_v0 {
entry:
  %this.addr = alloca ptr, align 8
  store ptr %this, ptr %this.addr, align 8, !tbaa !3
  %this1 = load ptr, ptr %this.addr, align 8
  %pi_ = getelementptr inbounds nuw %"class.boost::detail::shared_count", ptr %this1, i32 0, i32 0
  %0 = load ptr, ptr %pi_, align 8, !tbaa !98
  %cmp = icmp ne ptr %0, null
  br i1 %cmp, label %if.then, label %if.end

if.then:                                          ; preds = %entry
  %pi_2 = getelementptr inbounds nuw %"class.boost::detail::shared_count", ptr %this1, i32 0, i32 0
  %1 = load ptr, ptr %pi_2, align 8, !tbaa !98
  invoke void @_ZN5boost6detail15sp_counted_base7releaseEv(ptr noundef nonnull align 8 dereferenceable(16) %1)
          to label %invoke.cont unwind label %terminate.lpad

invoke.cont:                                      ; preds = %if.then
  br label %if.end

if.end:                                           ; preds = %invoke.cont, %entry
  ret void

terminate.lpad:                                   ; preds = %if.then
  %2 = landingpad { ptr, i32 }
          catch ptr null
  %3 = extractvalue { ptr, i32 } %2, 0
  call void @__clang_call_terminate(ptr %3) #22
  unreachable
}

; Function Attrs: mustprogress nounwind uwtable
define linkonce_odr noundef float @_ZNSt14numeric_limitsIfE3maxEv() #1 comdat align 2 {
entry:
  ret float 0x47EFFFFFE0000000
}

; Function Attrs: mustprogress nounwind uwtable
define linkonce_odr void @_ZN5boost6detail12shared_countC2Ev(ptr noundef nonnull align 8 dereferenceable(8) %this) unnamed_addr #1 comdat align 2 {
entry:
  %this.addr = alloca ptr, align 8
  store ptr %this, ptr %this.addr, align 8, !tbaa !3
  %this1 = load ptr, ptr %this.addr, align 8
  %pi_ = getelementptr inbounds nuw %"class.boost::detail::shared_count", ptr %this1, i32 0, i32 0
  store ptr null, ptr %pi_, align 8, !tbaa !98
  ret void
}

; Function Attrs: inlinehint mustprogress nounwind uwtable
define linkonce_odr void @_ZN5boost10shared_ptrIN8QuantLib6PayoffEED2Ev(ptr noundef nonnull align 8 dereferenceable(16) %this) unnamed_addr #5 comdat align 2 {
entry:
  %this.addr = alloca ptr, align 8
  store ptr %this, ptr %this.addr, align 8, !tbaa !3
  %this1 = load ptr, ptr %this.addr, align 8
  %pn = getelementptr inbounds nuw %"class.boost::shared_ptr.16", ptr %this1, i32 0, i32 1
  call void @_ZN5boost6detail12shared_countD2Ev(ptr noundef nonnull align 8 dereferenceable(8) %pn) #14
  ret void
}

; Function Attrs: inlinehint mustprogress nounwind uwtable
define linkonce_odr void @_ZN5boost10shared_ptrIN8QuantLib8ExerciseEED2Ev(ptr noundef nonnull align 8 dereferenceable(16) %this) unnamed_addr #5 comdat align 2 {
entry:
  %this.addr = alloca ptr, align 8
  store ptr %this, ptr %this.addr, align 8, !tbaa !3
  %this1 = load ptr, ptr %this.addr, align 8
  %pn = getelementptr inbounds nuw %"class.boost::shared_ptr.17", ptr %this1, i32 0, i32 1
  call void @_ZN5boost6detail12shared_countD2Ev(ptr noundef nonnull align 8 dereferenceable(8) %pn) #14
  ret void
}

; Function Attrs: mustprogress nounwind uwtable
define linkonce_odr noundef float @_ZN8QuantLib6detail17FloatingPointNullILb1EE9nullValueEv() #1 comdat align 2 {
entry:
  %call = call noundef float @_ZNSt14numeric_limitsIfE3maxEv() #14
  ret float %call
}

; Function Attrs: mustprogress nounwind uwtable
define linkonce_odr void @_ZN5boost10shared_ptrIN8QuantLib8ExerciseEEC2Ev(ptr noundef nonnull align 8 dereferenceable(16) %this) unnamed_addr #1 comdat align 2 {
entry:
  %this.addr = alloca ptr, align 8
  store ptr %this, ptr %this.addr, align 8, !tbaa !3
  %this1 = load ptr, ptr %this.addr, align 8
  %px = getelementptr inbounds nuw %"class.boost::shared_ptr.17", ptr %this1, i32 0, i32 0
  store ptr null, ptr %px, align 8, !tbaa !99
  %pn = getelementptr inbounds nuw %"class.boost::shared_ptr.17", ptr %this1, i32 0, i32 1
  call void @_ZN5boost6detail12shared_countC2Ev(ptr noundef nonnull align 8 dereferenceable(8) %pn) #14
  ret void
}

; Function Attrs: mustprogress nounwind uwtable
define linkonce_odr void @_ZN5boost10shared_ptrIN8QuantLib6PayoffEEC2Ev(ptr noundef nonnull align 8 dereferenceable(16) %this) unnamed_addr #1 comdat align 2 {
entry:
  %this.addr = alloca ptr, align 8
  store ptr %this, ptr %this.addr, align 8, !tbaa !3
  %this1 = load ptr, ptr %this.addr, align 8
  %px = getelementptr inbounds nuw %"class.boost::shared_ptr.16", ptr %this1, i32 0, i32 0
  store ptr null, ptr %px, align 8, !tbaa !45
  %pn = getelementptr inbounds nuw %"class.boost::shared_ptr.16", ptr %this1, i32 0, i32 1
  call void @_ZN5boost6detail12shared_countC2Ev(ptr noundef nonnull align 8 dereferenceable(8) %pn) #14
  ret void
}

; Function Attrs: mustprogress nounwind uwtable
define linkonce_odr void @_ZN8QuantLib13PricingEngine9argumentsD2Ev(ptr noundef nonnull align 8 dereferenceable(8) %this) unnamed_addr #1 comdat align 2 {
entry:
  %this.addr = alloca ptr, align 8
  store ptr %this, ptr %this.addr, align 8, !tbaa !3
  ret void
}

; Function Attrs: inlinehint mustprogress nounwind uwtable
define linkonce_odr void @_ZN8QuantLib6Option9argumentsD2Ev(ptr noundef nonnull align 8 dereferenceable(40) %this, ptr noundef %vtt) unnamed_addr #5 comdat align 2 {
entry:
  %this.addr = alloca ptr, align 8
  %vtt.addr = alloca ptr, align 8
  store ptr %this, ptr %this.addr, align 8, !tbaa !3
  store ptr %vtt, ptr %vtt.addr, align 8, !tbaa !3
  %this1 = load ptr, ptr %this.addr, align 8
  %vtt2 = load ptr, ptr %vtt.addr, align 8
  %0 = load ptr, ptr %vtt2, align 8
  store ptr %0, ptr %this1, align 8, !tbaa !20
  %1 = getelementptr inbounds ptr, ptr %vtt2, i64 1
  %2 = load ptr, ptr %1, align 8
  %vtable = load ptr, ptr %this1, align 8, !tbaa !20
  %vbase.offset.ptr = getelementptr i8, ptr %vtable, i64 -40
  %vbase.offset = load i64, ptr %vbase.offset.ptr, align 8
  %add.ptr = getelementptr inbounds i8, ptr %this1, i64 %vbase.offset
  store ptr %2, ptr %add.ptr, align 8, !tbaa !20
  %exercise = getelementptr inbounds nuw %"class.QuantLib::Option::arguments", ptr %this1, i32 0, i32 2
  call void @_ZN5boost10shared_ptrIN8QuantLib8ExerciseEED2Ev(ptr noundef nonnull align 8 dereferenceable(16) %exercise) #14
  %payoff = getelementptr inbounds nuw %"class.QuantLib::Option::arguments", ptr %this1, i32 0, i32 1
  call void @_ZN5boost10shared_ptrIN8QuantLib6PayoffEED2Ev(ptr noundef nonnull align 8 dereferenceable(16) %payoff) #14
  ret void
}

; Function Attrs: mustprogress uwtable
define linkonce_odr noundef double @_ZNK8QuantLib4NullIdEcvdEv(ptr noundef nonnull align 1 dereferenceable(1) %this) #2 comdat align 2 {
entry:
  %this.addr = alloca ptr, align 8
  store ptr %this, ptr %this.addr, align 8, !tbaa !3
  %call = call noundef float @_ZN8QuantLib6detail17FloatingPointNullILb1EE9nullValueEv()
  %conv = fpext float %call to double
  ret double %conv
}

; Function Attrs: mustprogress nounwind uwtable
define linkonce_odr void @_ZN8QuantLib6Option9argumentsC2Ev(ptr noundef nonnull align 8 dereferenceable(40) %this, ptr noundef %vtt) unnamed_addr #1 comdat align 2 {
entry:
  %this.addr = alloca ptr, align 8
  %vtt.addr = alloca ptr, align 8
  store ptr %this, ptr %this.addr, align 8, !tbaa !3
  store ptr %vtt, ptr %vtt.addr, align 8, !tbaa !3
  %this1 = load ptr, ptr %this.addr, align 8
  %vtt2 = load ptr, ptr %vtt.addr, align 8
  %0 = load ptr, ptr %vtt2, align 8
  store ptr %0, ptr %this1, align 8, !tbaa !20
  %1 = getelementptr inbounds ptr, ptr %vtt2, i64 1
  %2 = load ptr, ptr %1, align 8
  %vtable = load ptr, ptr %this1, align 8, !tbaa !20
  %vbase.offset.ptr = getelementptr i8, ptr %vtable, i64 -40
  %vbase.offset = load i64, ptr %vbase.offset.ptr, align 8
  %add.ptr = getelementptr inbounds i8, ptr %this1, i64 %vbase.offset
  store ptr %2, ptr %add.ptr, align 8, !tbaa !20
  %payoff = getelementptr inbounds nuw %"class.QuantLib::Option::arguments", ptr %this1, i32 0, i32 1
  call void @_ZN5boost10shared_ptrIN8QuantLib6PayoffEEC2Ev(ptr noundef nonnull align 8 dereferenceable(16) %payoff) #14
  %exercise = getelementptr inbounds nuw %"class.QuantLib::Option::arguments", ptr %this1, i32 0, i32 2
  call void @_ZN5boost10shared_ptrIN8QuantLib8ExerciseEEC2Ev(ptr noundef nonnull align 8 dereferenceable(16) %exercise) #14
  ret void
}

; Function Attrs: inlinehint mustprogress nounwind uwtable
define linkonce_odr void @_ZN8QuantLib13PricingEngine9argumentsC2Ev(ptr noundef nonnull align 8 dereferenceable(8) %this) unnamed_addr #5 comdat align 2 {
entry:
  %this.addr = alloca ptr, align 8
  store ptr %this, ptr %this.addr, align 8, !tbaa !3
  %this1 = load ptr, ptr %this.addr, align 8
  store ptr getelementptr inbounds inrange(-16, 24) ({ [5 x ptr] }, ptr @_ZTVN8QuantLib13PricingEngine9argumentsE, i32 0, i32 0, i32 2), ptr %this1, align 8, !tbaa !20
  ret void
}

; Function Attrs: mustprogress uwtable
define void @_ZN8QuantLib13EverestOption9argumentsC1Ev(ptr noundef nonnull align 8 dereferenceable(56) %this) unnamed_addr #2 align 2 personality ptr @__gxx_personality_v0 {
entry:
  %this.addr = alloca ptr, align 8
  %ref.tmp = alloca %"class.QuantLib::Null", align 1
  %exn.slot = alloca ptr, align 8
  %ehselector.slot = alloca i32, align 4
  %ref.tmp2 = alloca %"class.QuantLib::Null", align 1
  store ptr %this, ptr %this.addr, align 8, !tbaa !3
  %this1 = load ptr, ptr %this.addr, align 8
  call void @_ZN8QuantLib13PricingEngine9argumentsC2Ev(ptr noundef nonnull align 8 dereferenceable(8) %this1) #14
  call void @_ZN8QuantLib6Option9argumentsC2Ev(ptr noundef nonnull align 8 dereferenceable(40) %this1, ptr noundef getelementptr inbounds ([4 x ptr], ptr @_ZTTN8QuantLib13EverestOption9argumentsE, i64 0, i64 1)) #14
  store ptr getelementptr inbounds inrange(-40, 24) ({ [8 x ptr] }, ptr @_ZTVN8QuantLib13EverestOption9argumentsE, i32 0, i32 0, i32 5), ptr %this1, align 8, !tbaa !20
  store ptr getelementptr inbounds inrange(-40, 24) ({ [8 x ptr] }, ptr @_ZTVN8QuantLib13EverestOption9argumentsE, i32 0, i32 0, i32 5), ptr %this1, align 8, !tbaa !20
  %notional = getelementptr inbounds nuw %"class.QuantLib::EverestOption::arguments", ptr %this1, i32 0, i32 1
  call void @llvm.lifetime.start.p0(i64 1, ptr %ref.tmp) #14
  %call = invoke noundef double @_ZNK8QuantLib4NullIdEcvdEv(ptr noundef nonnull align 1 dereferenceable(1) %ref.tmp)
          to label %invoke.cont unwind label %lpad

invoke.cont:                                      ; preds = %entry
  call void @llvm.lifetime.end.p0(i64 1, ptr %ref.tmp) #14
  store double %call, ptr %notional, align 8, !tbaa !47
  %guarantee = getelementptr inbounds nuw %"class.QuantLib::EverestOption::arguments", ptr %this1, i32 0, i32 2
  call void @llvm.lifetime.start.p0(i64 1, ptr %ref.tmp2) #14
  %call5 = invoke noundef double @_ZNK8QuantLib4NullIdEcvdEv(ptr noundef nonnull align 1 dereferenceable(1) %ref.tmp2)
          to label %invoke.cont4 unwind label %lpad3

invoke.cont4:                                     ; preds = %invoke.cont
  call void @llvm.lifetime.end.p0(i64 1, ptr %ref.tmp2) #14
  store double %call5, ptr %guarantee, align 8, !tbaa !50
  ret void

lpad:                                             ; preds = %entry
  %0 = landingpad { ptr, i32 }
          cleanup
  %1 = extractvalue { ptr, i32 } %0, 0
  store ptr %1, ptr %exn.slot, align 8
  %2 = extractvalue { ptr, i32 } %0, 1
  store i32 %2, ptr %ehselector.slot, align 4
  call void @llvm.lifetime.end.p0(i64 1, ptr %ref.tmp) #14
  br label %ehcleanup

lpad3:                                            ; preds = %invoke.cont
  %3 = landingpad { ptr, i32 }
          cleanup
  %4 = extractvalue { ptr, i32 } %3, 0
  store ptr %4, ptr %exn.slot, align 8
  %5 = extractvalue { ptr, i32 } %3, 1
  store i32 %5, ptr %ehselector.slot, align 4
  call void @llvm.lifetime.end.p0(i64 1, ptr %ref.tmp2) #14
  br label %ehcleanup

ehcleanup:                                        ; preds = %lpad3, %lpad
  call void @_ZN8QuantLib6Option9argumentsD2Ev(ptr noundef nonnull align 8 dereferenceable(40) %this1, ptr noundef getelementptr inbounds ([4 x ptr], ptr @_ZTTN8QuantLib13EverestOption9argumentsE, i64 0, i64 1)) #14
  call void @_ZN8QuantLib13PricingEngine9argumentsD2Ev(ptr noundef nonnull align 8 dereferenceable(8) %this1) #14
  br label %eh.resume

eh.resume:                                        ; preds = %ehcleanup
  %exn = load ptr, ptr %exn.slot, align 8
  %sel = load i32, ptr %ehselector.slot, align 4
  %lpad.val = insertvalue { ptr, i32 } poison, ptr %exn, 0
  %lpad.val7 = insertvalue { ptr, i32 } %lpad.val, i32 %sel, 1
  resume { ptr, i32 } %lpad.val7
}