; Function Attrs: mustprogress nofree norecurse nosync nounwind willreturn memory(argmem: write) uwtable
define void @_ZN8QuantLib13EverestOption9argumentsC1Ev(ptr nocapture noundef nonnull writeonly align 8 dereferenceable(56) %this) unnamed_addr #14 align 2 personality ptr @__gxx_personality_v0 {
invoke.cont4:
  %payoff.i = getelementptr inbounds nuw i8, ptr %this, i64 8
  tail call void @llvm.memset.p0.i64(ptr noundef nonnull align 8 dereferenceable(32) %payoff.i, i8 0, i64 32, i1 false)
  store ptr getelementptr inbounds inrange(-40, 24) (i8, ptr @_ZTVN8QuantLib13EverestOption9argumentsE, i64 40), ptr %this, align 8, !tbaa !33
  %notional = getelementptr inbounds nuw i8, ptr %this, i64 40
  store double 0x47EFFFFFE0000000, ptr %notional, align 8, !tbaa !69
  %guarantee = getelementptr inbounds nuw i8, ptr %this, i64 48
  store double 0x47EFFFFFE0000000, ptr %guarantee, align 8, !tbaa !72
  ret void
}